target datalayout = "e-m:e-p270:32:32-p271:32:32-p272:64:64-i64:64-i128:128-f80:128-n8:16:32:64-S128"
target triple = "x86_64-pc-linux-gnu"

%struct._HF_OF_INTEREST_INFO = type { i32, ptr }

; Function Attrs: null_pointer_is_valid sspstrong uwtable
define hidden void @proto_reg_handoff_transum() #0 {
  %1 = alloca i32, align 4
  call void @llvm.lifetime.start.p0(i64 4, ptr %1) #9
  store i32 0, ptr %1, align 4
  br label %2

2:                                                ; preds = %17, %0
  %3 = load i32, ptr %1, align 4
  %4 = icmp slt i32 %3, 29
  br i1 %4, label %6, label %5

5:                                                ; preds = %2
  call void @llvm.lifetime.end.p0(i64 4, ptr %1) #9
  br label %20

6:                                                ; preds = %2
  %7 = load i32, ptr %1, align 4
  %8 = sext i32 %7 to i64
  %9 = getelementptr [29 x %struct._HF_OF_INTEREST_INFO], ptr @hf_of_interest, i64 0, i64 %8
  %10 = getelementptr inbounds nuw %struct._HF_OF_INTEREST_INFO, ptr %9, i32 0, i32 1
  %11 = load ptr, ptr %10, align 8
  %12 = call i32 @proto_registrar_get_id_byname(ptr noundef %11)
  %13 = load i32, ptr %1, align 4
  %14 = sext i32 %13 to i64
  %15 = getelementptr [29 x %struct._HF_OF_INTEREST_INFO], ptr @hf_of_interest, i64 0, i64 %14
  %16 = getelementptr inbounds nuw %struct._HF_OF_INTEREST_INFO, ptr %15, i32 0, i32 0
  store i32 %12, ptr %16, align 16
  br label %17

17:                                               ; preds = %6
  %18 = load i32, ptr %1, align 4
  %19 = add i32 %18, 1
  store i32 %19, ptr %1, align 4
  br label %2, !llvm.loop !15

20:                                               ; preds = %5
  ret void
}